target datalayout = "e-m:e-p270:32:32-p271:32:32-p272:64:64-i64:64-i128:128-f80:128-n8:16:32:64-S128"
target triple = "x86_64-pc-linux-gnu"

%struct._zval_struct = type { %union._zend_value, %union.anon, %union.anon.2 }
%union._zend_value = type { i64 }
%union.anon = type { i32 }
%union.anon.2 = type { i32 }
%struct._zend_refcounted_h = type { i32, %union.anon.3 }
%union.anon.3 = type { i32 }
%struct.zend_get_gc_buffer = type { ptr, ptr, ptr }
%struct._zend_object = type { %struct._zend_refcounted_h, i32, ptr, ptr, ptr, [1 x %struct._zval_struct] }
%struct._zend_user_iterator = type { %struct._zend_object_iterator, ptr, %struct._zval_struct }
%struct._zend_object_iterator = type { %struct._zend_object, %struct._zval_struct, ptr, i64 }
%struct.anon.0 = type { i8, i8, %union.anon.1 }
%union.anon.1 = type { i16 }

; Function Attrs: nounwind uwtable
define ptr @zend_user_it_get_gc(ptr noundef %0, ptr noundef %1, ptr noundef %2) #0 {
  %4 = alloca ptr, align 8
  %5 = alloca ptr, align 8
  %6 = alloca ptr, align 8
  %7 = alloca ptr, align 8
  %8 = alloca ptr, align 8
  %9 = alloca ptr, align 8
  %10 = alloca ptr, align 8
  %11 = alloca ptr, align 8
  %12 = alloca i32, align 4
  %13 = alloca ptr, align 8
  %14 = alloca ptr, align 8
  %15 = alloca ptr, align 8
  %16 = alloca ptr, align 8
  %17 = alloca ptr, align 8
  %18 = alloca i32, align 4
  %19 = alloca ptr, align 8
  %20 = alloca ptr, align 8
  %21 = alloca ptr, align 8
  %22 = alloca ptr, align 8
  %23 = alloca ptr, align 8
  %24 = alloca ptr, align 8
  store ptr %0, ptr %20, align 8
  store ptr %1, ptr %21, align 8
  store ptr %2, ptr %22, align 8
  %25 = load ptr, ptr %20, align 8
  store ptr %25, ptr %23, align 8
  %26 = load ptr, ptr %23, align 8
  %27 = getelementptr inbounds %struct._zend_user_iterator, ptr %26, i32 0, i32 2
  store ptr %27, ptr %19, align 8
  %28 = load ptr, ptr %19, align 8
  %29 = getelementptr inbounds %struct._zval_struct, ptr %28, i32 0, i32 1
  %30 = load i8, ptr %29, align 8
  %31 = zext i8 %30 to i32
  %32 = icmp eq i32 %31, 0
  br i1 %32, label %33, label %39

33:                                               ; preds = %3
  %34 = load ptr, ptr %23, align 8
  %35 = getelementptr inbounds %struct._zend_user_iterator, ptr %34, i32 0, i32 0
  %36 = getelementptr inbounds %struct._zend_object_iterator, ptr %35, i32 0, i32 1
  %37 = load ptr, ptr %21, align 8
  store ptr %36, ptr %37, align 8
  %38 = load ptr, ptr %22, align 8
  store i32 1, ptr %38, align 4
  br label %132

39:                                               ; preds = %3
  %40 = call ptr @zend_get_gc_buffer_create()
  store ptr %40, ptr %24, align 8
  %41 = load ptr, ptr %24, align 8
  %42 = load ptr, ptr %23, align 8
  %43 = getelementptr inbounds %struct._zend_user_iterator, ptr %42, i32 0, i32 0
  %44 = getelementptr inbounds %struct._zend_object_iterator, ptr %43, i32 0, i32 1
  store ptr %41, ptr %7, align 8
  store ptr %44, ptr %8, align 8
  %45 = load ptr, ptr %8, align 8
  %46 = getelementptr inbounds %struct._zval_struct, ptr %45, i32 0, i32 1
  %47 = getelementptr inbounds %struct.anon.0, ptr %46, i32 0, i32 1
  %48 = load i8, ptr %47, align 1
  %49 = zext i8 %48 to i32
  %50 = icmp ne i32 %49, 0
  br i1 %50, label %51, label %77

51:                                               ; preds = %39
  %52 = load ptr, ptr %7, align 8
  %53 = load ptr, ptr %52, align 8
  %54 = load ptr, ptr %7, align 8
  %55 = getelementptr inbounds %struct.zend_get_gc_buffer, ptr %54, i32 0, i32 1
  %56 = load ptr, ptr %55, align 8
  %57 = icmp eq ptr %53, %56
  br i1 %57, label %58, label %60

58:                                               ; preds = %51
  %59 = load ptr, ptr %7, align 8
  call void @zend_get_gc_buffer_grow(ptr noundef %59) #10
  br label %60

60:                                               ; preds = %58, %51
  %61 = load ptr, ptr %7, align 8
  %62 = load ptr, ptr %61, align 8
  store ptr %62, ptr %9, align 8
  %63 = load ptr, ptr %8, align 8
  store ptr %63, ptr %10, align 8
  %64 = load ptr, ptr %10, align 8
  %65 = load ptr, ptr %64, align 8
  store ptr %65, ptr %11, align 8
  %66 = load ptr, ptr %10, align 8
  %67 = getelementptr inbounds %struct._zval_struct, ptr %66, i32 0, i32 1
  %68 = load i32, ptr %67, align 8
  store i32 %68, ptr %12, align 4
  %69 = load ptr, ptr %11, align 8
  %70 = load ptr, ptr %9, align 8
  store ptr %69, ptr %70, align 8
  %71 = load i32, ptr %12, align 4
  %72 = load ptr, ptr %9, align 8
  %73 = getelementptr inbounds %struct._zval_struct, ptr %72, i32 0, i32 1
  store i32 %71, ptr %73, align 8
  %74 = load ptr, ptr %7, align 8
  %75 = load ptr, ptr %74, align 8
  %76 = getelementptr inbounds %struct._zval_struct, ptr %75, i32 1
  store ptr %76, ptr %74, align 8
  br label %77

77:                                               ; preds = %60, %39
  %78 = load ptr, ptr %24, align 8
  %79 = load ptr, ptr %23, align 8
  %80 = getelementptr inbounds %struct._zend_user_iterator, ptr %79, i32 0, i32 2
  store ptr %78, ptr %13, align 8
  store ptr %80, ptr %14, align 8
  %81 = load ptr, ptr %14, align 8
  %82 = getelementptr inbounds %struct._zval_struct, ptr %81, i32 0, i32 1
  %83 = getelementptr inbounds %struct.anon.0, ptr %82, i32 0, i32 1
  %84 = load i8, ptr %83, align 1
  %85 = zext i8 %84 to i32
  %86 = icmp ne i32 %85, 0
  br i1 %86, label %87, label %113

87:                                               ; preds = %77
  %88 = load ptr, ptr %13, align 8
  %89 = load ptr, ptr %88, align 8
  %90 = load ptr, ptr %13, align 8
  %91 = getelementptr inbounds %struct.zend_get_gc_buffer, ptr %90, i32 0, i32 1
  %92 = load ptr, ptr %91, align 8
  %93 = icmp eq ptr %89, %92
  br i1 %93, label %94, label %96

94:                                               ; preds = %87
  %95 = load ptr, ptr %13, align 8
  call void @zend_get_gc_buffer_grow(ptr noundef %95) #10
  br label %96

96:                                               ; preds = %94, %87
  %97 = load ptr, ptr %13, align 8
  %98 = load ptr, ptr %97, align 8
  store ptr %98, ptr %15, align 8
  %99 = load ptr, ptr %14, align 8
  store ptr %99, ptr %16, align 8
  %100 = load ptr, ptr %16, align 8
  %101 = load ptr, ptr %100, align 8
  store ptr %101, ptr %17, align 8
  %102 = load ptr, ptr %16, align 8
  %103 = getelementptr inbounds %struct._zval_struct, ptr %102, i32 0, i32 1
  %104 = load i32, ptr %103, align 8
  store i32 %104, ptr %18, align 4
  %105 = load ptr, ptr %17, align 8
  %106 = load ptr, ptr %15, align 8
  store ptr %105, ptr %106, align 8
  %107 = load i32, ptr %18, align 4
  %108 = load ptr, ptr %15, align 8
  %109 = getelementptr inbounds %struct._zval_struct, ptr %108, i32 0, i32 1
  store i32 %107, ptr %109, align 8
  %110 = load ptr, ptr %13, align 8
  %111 = load ptr, ptr %110, align 8
  %112 = getelementptr inbounds %struct._zval_struct, ptr %111, i32 1
  store ptr %112, ptr %110, align 8
  br label %113

113:                                              ; preds = %96, %77
  %114 = load ptr, ptr %24, align 8
  %115 = load ptr, ptr %21, align 8
  %116 = load ptr, ptr %22, align 8
  store ptr %114, ptr %4, align 8
  store ptr %115, ptr %5, align 8
  store ptr %116, ptr %6, align 8
  %117 = load ptr, ptr %4, align 8
  %118 = getelementptr inbounds %struct.zend_get_gc_buffer, ptr %117, i32 0, i32 2
  %119 = load ptr, ptr %118, align 8
  %120 = load ptr, ptr %5, align 8
  store ptr %119, ptr %120, align 8
  %121 = load ptr, ptr %4, align 8
  %122 = load ptr, ptr %121, align 8
  %123 = load ptr, ptr %4, align 8
  %124 = getelementptr inbounds %struct.zend_get_gc_buffer, ptr %123, i32 0, i32 2
  %125 = load ptr, ptr %124, align 8
  %126 = ptrtoint ptr %122 to i64
  %127 = ptrtoint ptr %125 to i64
  %128 = sub i64 %126, %127
  %129 = sdiv exact i64 %128, 16
  %130 = trunc i64 %129 to i32
  %131 = load ptr, ptr %6, align 8
  store i32 %130, ptr %131, align 4
  br label %132

132:                                              ; preds = %113, %33
  ret ptr null
}