; Function Attrs: nounwind uwtable
define noalias noundef ptr @zend_user_it_get_gc(ptr noundef %0, ptr nocapture noundef writeonly %1, ptr nocapture noundef writeonly %2) #0 {
  %4 = getelementptr inbounds i8, ptr %0, i64 96
  %5 = getelementptr inbounds i8, ptr %0, i64 104
  %6 = load i8, ptr %5, align 8
  %7 = icmp eq i8 %6, 0
  br i1 %7, label %8, label %10

8:                                                ; preds = %3
  %9 = getelementptr inbounds i8, ptr %0, i64 56
  store ptr %9, ptr %1, align 8
  br label %54

10:                                               ; preds = %3
  %11 = tail call ptr @zend_get_gc_buffer_create() #9
  %12 = getelementptr inbounds i8, ptr %0, i64 56
  %13 = getelementptr inbounds i8, ptr %0, i64 64
  %14 = getelementptr inbounds i8, ptr %0, i64 65
  %15 = load i8, ptr %14, align 1
  %.not = icmp eq i8 %15, 0
  br i1 %.not, label %29, label %16

16:                                               ; preds = %10
  %17 = load ptr, ptr %11, align 8
  %18 = getelementptr inbounds i8, ptr %11, i64 8
  %19 = load ptr, ptr %18, align 8
  %20 = icmp eq ptr %17, %19
  br i1 %20, label %21, label %22

21:                                               ; preds = %16
  tail call void @zend_get_gc_buffer_grow(ptr noundef nonnull %11) #9
  %.pre = load ptr, ptr %11, align 8
  br label %22

22:                                               ; preds = %21, %16
  %23 = phi ptr [ %.pre, %21 ], [ %17, %16 ]
  %24 = load ptr, ptr %12, align 8
  %25 = load i32, ptr %13, align 8
  store ptr %24, ptr %23, align 8
  %26 = getelementptr inbounds i8, ptr %23, i64 8
  store i32 %25, ptr %26, align 8
  %27 = load ptr, ptr %11, align 8
  %28 = getelementptr inbounds i8, ptr %27, i64 16
  store ptr %28, ptr %11, align 8
  br label %29

29:                                               ; preds = %22, %10
  %30 = getelementptr inbounds i8, ptr %0, i64 105
  %31 = load i8, ptr %30, align 1
  %.not43 = icmp eq i8 %31, 0
  br i1 %.not43, label %45, label %32

32:                                               ; preds = %29
  %33 = load ptr, ptr %11, align 8
  %34 = getelementptr inbounds i8, ptr %11, i64 8
  %35 = load ptr, ptr %34, align 8
  %36 = icmp eq ptr %33, %35
  br i1 %36, label %37, label %38

37:                                               ; preds = %32
  tail call void @zend_get_gc_buffer_grow(ptr noundef nonnull %11) #9
  %.pre44 = load ptr, ptr %11, align 8
  br label %38

38:                                               ; preds = %37, %32
  %39 = phi ptr [ %.pre44, %37 ], [ %33, %32 ]
  %40 = load ptr, ptr %4, align 8
  %41 = load i32, ptr %5, align 8
  store ptr %40, ptr %39, align 8
  %42 = getelementptr inbounds i8, ptr %39, i64 8
  store i32 %41, ptr %42, align 8
  %43 = load ptr, ptr %11, align 8
  %44 = getelementptr inbounds i8, ptr %43, i64 16
  store ptr %44, ptr %11, align 8
  br label %45

45:                                               ; preds = %38, %29
  %46 = getelementptr inbounds i8, ptr %11, i64 16
  %47 = load ptr, ptr %46, align 8
  store ptr %47, ptr %1, align 8
  %48 = load ptr, ptr %11, align 8
  %49 = ptrtoint ptr %48 to i64
  %50 = ptrtoint ptr %47 to i64
  %51 = sub i64 %49, %50
  %52 = lshr exact i64 %51, 4
  %53 = trunc i64 %52 to i32
  br label %54

54:                                               ; preds = %45, %8
  %storemerge = phi i32 [ %53, %45 ], [ 1, %8 ]
  store i32 %storemerge, ptr %2, align 4
  ret ptr null
}